; Function Attrs: mustprogress sspstrong uwtable
define noundef zeroext i1 @_ZN3tbb6detail2r123task_group_context_impl22cancel_group_executionERNS0_2d118task_group_contextE(ptr noundef nonnull align 8 dereferenceable(128) %0) local_unnamed_addr #8 align 2 {
  %2 = getelementptr inbounds nuw i8, ptr %0, i64 8
  %3 = load atomic i32, ptr %2 monotonic, align 8
  %.not = icmp eq i32 %3, 0
  br i1 %.not, label %4, label %16

4:                                                ; preds = %1
  %5 = atomicrmw xchg ptr %2, i32 1 seq_cst, align 4
  %.not4 = icmp eq i32 %5, 0
  br i1 %.not4, label %6, label %16

6:                                                ; preds = %4
  %7 = load i32, ptr @_ZN3tbb6detail2r18governor6theTLSE, align 4, !tbaa !111
  %8 = tail call noundef ptr @pthread_getspecific(i32 noundef %7) #13
  %.not.i = icmp eq ptr %8, null
  br i1 %.not.i, label %9, label %_ZN3tbb6detail2r18governor15get_thread_dataEv.exit

9:                                                ; preds = %6
  tail call void @_ZN3tbb6detail2r18governor20init_external_threadEv()
  %10 = load i32, ptr @_ZN3tbb6detail2r18governor6theTLSE, align 4, !tbaa !111
  %11 = tail call noundef ptr @pthread_getspecific(i32 noundef %10) #13
  br label %_ZN3tbb6detail2r18governor15get_thread_dataEv.exit

_ZN3tbb6detail2r18governor15get_thread_dataEv.exit: ; preds = %6, %9
  %.0.i = phi ptr [ %11, %9 ], [ %8, %6 ]
  %12 = getelementptr inbounds nuw i8, ptr %.0.i, i64 32
  %13 = load ptr, ptr %12, align 8, !tbaa !78
  %14 = getelementptr inbounds nuw i8, ptr %13, i64 280
  %15 = load ptr, ptr %14, align 8, !tbaa !113
  tail call void @_ZN3tbb6detail2r117threading_control26propagate_task_group_stateEMNS0_2d118task_group_contextESt6atomicIjERS4_j(ptr noundef nonnull align 8 dereferenceable(16) %15, i64 8, ptr noundef nonnull align 8 dereferenceable(128) %0, i32 noundef 1)
  br label %16

16:                                               ; preds = %1, %4, %_ZN3tbb6detail2r18governor15get_thread_dataEv.exit
  %.0 = phi i1 [ true, %_ZN3tbb6detail2r18governor15get_thread_dataEv.exit ], [ false, %4 ], [ false, %1 ]
  ret i1 %.0
}